-----BEGIN RSA PRIVATE KEY-----
MIICXgIBAAKBgQDxF3rJNmNJ0CvtoE1msqAZ1efH/8LZ236+jwk+OWqJrkFTB8DZ
LQ9h/FHGwcG6QHdxrQO7uR+UYU2wdRhPOtkSXYbS5o6SuMMyXirYkshNVoCZhho9
zlmpRK0+3XVpzeQ5Vm1lTNiI/5WFVULEG0qjeJOWnIt0jhg4uCU8+Ld/FQIDAQAB
AoGBAOkHKc4sfKGOzbbb15RpGOh/4Y1lf3+1cXdcp7F2K6yyOj+34cXIkPLDwIMd
KlQNFaZRdadP0t9HgaEKPRnvpnkCnTUu04lX2KOQ3H33JhQu4URHEB8kp+ogxiYi
3j8m2GjXfyiSjhTiycyMgGBVbYKAe66W3/podirbOTflwfvtAkEA+RKnyEBbMZLm
xhu09y6gCvQSuQuae0dCB065T8d0l23dRniMlWCrH/Kvg/QCPbzSknVGvBH0F4Cy
Te1tvR7qHwJBAPfMAAmO7jdcFwBxdkmUqQcQ9hlHmJmBJknJhnFFcKr49iTE+fIm
cpmoOqTxH6h7w3cnbdVNT/s3BB2ma8qKGEsCQCrDXTMweXfFdQHGeAeIZcn7pctH
hrprvZZrmb1szUPChR84S0rKUhcmH6RUHJ5k8PJcWEyp+HKgkfx3K0QxLpkCQQCw
LjcIlLsCWVNxWTqE7lGPWJvhNWpmGdEjPUl9V6XXqdM4KWScqoFohpfLljSwEe7T
1RDeS23Ga0Nd4WlaQ/0pAkEAp2XRDyDvH8ASC/Wm7suCPZc1bBn0dRmwezKqNYNR
TV30FqJQV88+eQSu5swV0vtaG3xBVCf+s+QeHekdaVOr6g==
-----END RSA PRIVATE KEY-----
Certificate:
    Data:
        Version: 3 (0x2)
        Serial Number: 1 (0x1)
        Signature Algorithm: sha1WithRSAEncryption
        Issuer: CN=vivisystems CA, C=TW, ST=Taiwan, L=Taipei, O=Vivisystems, Taiwan/emailAddress=support@vivisystems.com.tw
        Validity
            Not Before: Aug 23 05:17:50 2010 GMT
            Not After : Aug 18 05:17:50 2030 GMT
        Subject: C=TW, ST=Taiwan, O=Vivisystems, Taiwan, CN=support.vivisystems.com.tw/emailAddress=support@vivisystems.com.tw
        Subject Public Key Info:
            Public Key Algorithm: rsaEncryption
            RSA Public Key: (1024 bit)
                Modulus (1024 bit):
                    00:f1:17:7a:c9:36:63:49:d0:2b:ed:a0:4d:66:b2:
                    a0:19:d5:e7:c7:ff:c2:d9:db:7e:be:8f:09:3e:39:
                    6a:89:ae:41:53:07:c0:d9:2d:0f:61:fc:51:c6:c1:
                    c1:ba:40:77:71:ad:03:bb:b9:1f:94:61:4d:b0:75:
                    18:4f:3a:d9:12:5d:86:d2:e6:8e:92:b8:c3:32:5e:
                    2a:d8:92:c8:4d:56:80:99:86:1a:3d:ce:59:a9:44:
                    ad:3e:dd:75:69:cd:e4:39:56:6d:65:4c:d8:88:ff:
                    95:85:55:42:c4:1b:4a:a3:78:93:96:9c:8b:74:8e:
                    18:38:b8:25:3c:f8:b7:7f:15
                Exponent: 65537 (0x10001)
        X509v3 extensions:
            X509v3 Basic Constraints: 
                CA:FALSE
            X509v3 Subject Key Identifier: 
                3B:9B:BE:A9:4F:11:3F:C9:74:3B:05:FB:35:FA:4F:28:33:84:25:97
            X509v3 Authority Key Identifier: 
                keyid:A4:C0:1D:8F:21:00:D6:A4:1C:88:23:D9:85:6A:A9:E3:8A:22:91:CA
                DirName:/CN=vivisystems CA/C=TW/ST=Taiwan/L=Taipei/O=Vivisystems, Taiwan/emailAddress=support@vivisystems.com.tw
                serial:99:4C:0F:20:54:05:38:94

            Netscape CA Revocation Url: 
                https://www.vivisystems.com.tw/ca-crl.pem
    Signature Algorithm: sha1WithRSAEncryption
        12:db:28:d0:00:0a:1a:1c:91:5f:76:4f:1d:2e:cd:f7:58:7c:
        62:8c:f1:01:0c:5e:5f:38:79:6e:72:b5:f3:74:7e:62:bc:64:
        4c:7d:8d:4f:a4:3c:c4:ad:9d:3f:26:c3:7a:9d:fe:51:2c:46:
        e0:15:57:09:03:8e:3c:09:da:f5:ab:6d:ec:9b:3a:26:9f:f8:
        56:37:e7:8a:b2:49:d9:3a:5c:df:16:a9:76:66:c0:79:38:03:
        c6:b9:bd:1e:b4:34:46:3c:13:32:4a:58:f4:7c:44:72:4f:9d:
        e1:b7:ba:4a:7a:8d:a2:5f:b4:1c:01:1e:84:7a:37:7b:66:e0:
        79:13:91:b5:7e:7a:11:4c:30:48:9d:9e:05:c6:5b:90:59:a9:
        12:63:c7:bf:06:c7:9e:8c:ee:c8:f8:f4:8c:e3:e8:78:93:28:
        65:68:08:2f:c9:06:e7:b2:dd:15:e2:79:ee:b4:d9:12:86:5c:
        95:64:1b:51:e9:40:b7:fa:74:06:4f:b9:6e:33:e7:8c:35:ea:
        82:38:9d:1f:1d:38:0f:99:09:d8:7c:e0:54:b8:87:ff:1b:95:
        5d:b6:e8:b0:46:2c:24:0e:36:ee:08:85:aa:5f:14:67:42:bf:
        4c:c8:89:dd:0e:4f:a4:1c:4c:cc:54:c8:68:11:42:3f:b4:01:
        df:93:e9:89
-----BEGIN CERTIFICATE-----
MIIESTCCAzGgAwIBAgIBATANBgkqhkiG9w0BAQUFADCBkTEXMBUGA1UEAxMOdml2
aXN5c3RlbXMgQ0ExCzAJBgNVBAYTAlRXMQ8wDQYDVQQIEwZUYWl3YW4xDzANBgNV
BAcTBlRhaXBlaTEcMBoGA1UEChMTVml2aXN5c3RlbXMsIFRhaXdhbjEpMCcGCSqG
SIb3DQEJARYac3VwcG9ydEB2aXZpc3lzdGVtcy5jb20udHcwHhcNMTAwODIzMDUx
NzUwWhcNMzAwODE4MDUxNzUwWjCBjDELMAkGA1UEBhMCVFcxDzANBgNVBAgTBlRh
aXdhbjEcMBoGA1UEChMTVml2aXN5c3RlbXMsIFRhaXdhbjEjMCEGA1UEAxMac3Vw
cG9ydC52aXZpc3lzdGVtcy5jb20udHcxKTAnBgkqhkiG9w0BCQEWGnN1cHBvcnRA
dml2aXN5c3RlbXMuY29tLnR3MIGfMA0GCSqGSIb3DQEBAQUAA4GNADCBiQKBgQDx
F3rJNmNJ0CvtoE1msqAZ1efH/8LZ236+jwk+OWqJrkFTB8DZLQ9h/FHGwcG6QHdx
rQO7uR+UYU2wdRhPOtkSXYbS5o6SuMMyXirYkshNVoCZhho9zlmpRK0+3XVpzeQ5
Vm1lTNiI/5WFVULEG0qjeJOWnIt0jhg4uCU8+Ld/FQIDAQABo4IBMTCCAS0wCQYD
VR0TBAIwADAdBgNVHQ4EFgQUO5u+qU8RP8l0OwX7NfpPKDOEJZcwgcYGA1UdIwSB
vjCBu4AUpMAdjyEA1qQciCPZhWqp44oikcqhgZekgZQwgZExFzAVBgNVBAMTDnZp
dmlzeXN0ZW1zIENBMQswCQYDVQQGEwJUVzEPMA0GA1UECBMGVGFpd2FuMQ8wDQYD
VQQHEwZUYWlwZWkxHDAaBgNVBAoTE1ZpdmlzeXN0ZW1zLCBUYWl3YW4xKTAnBgkq
hkiG9w0BCQEWGnN1cHBvcnRAdml2aXN5c3RlbXMuY29tLnR3ggkAmUwPIFQFOJQw
OAYJYIZIAYb4QgEEBCsWKWh0dHBzOi8vd3d3LnZpdmlzeXN0ZW1zLmNvbS50dy9j
YS1jcmwucGVtMA0GCSqGSIb3DQEBBQUAA4IBAQAS2yjQAAoaHJFfdk8dLs33WHxi
jPEBDF5fOHlucrXzdH5ivGRMfY1PpDzErZ0/JsN6nf5RLEbgFVcJA448Cdr1q23s
mzomn/hWN+eKsknZOlzfFql2ZsB5OAPGub0etDRGPBMySlj0fERyT53ht7pKeo2i
X7QcAR6Eejd7ZuB5E5G1fnoRTDBInZ4FxluQWakSY8e/BseejO7I+PSM4+h4kyhl
aAgvyQbnst0V4nnutNkShlyVZBtR6UC3+nQGT7luM+eMNeqCOJ0fHTgPmQnYfOBU
uIf/G5VdtuiwRiwkDjbuCIWqXxRnQr9MyIndDk+kHEzMVMhoEUI/tAHfk+mJ
-----END CERTIFICATE-----
