Certificate:
    Data:
        Version: 3 (0x2)
        Serial Number: 2 (0x2)
        Signature Algorithm: sha1WithRSAEncryption
        Issuer: CN=vivisystems CA, C=TW, ST=Taiwan, L=Taipei, O=Vivisystems, Taiwan/emailAddress=support@vivisystems.com.tw
        Validity
            Not Before: Aug 23 05:26:34 2010 GMT
            Not After : Aug 18 05:26:34 2030 GMT
        Subject: C=TW, ST=Taiwan, O=Vivisystems, Taiwan, CN=roundrock.vivisystems.com.tw
        Subject Public Key Info:
            Public Key Algorithm: rsaEncryption
            RSA Public Key: (1024 bit)
                Modulus (1024 bit):
                    00:93:72:89:af:ed:c5:fd:b6:df:52:8b:eb:ab:9f:
                    71:4c:17:f2:18:3f:da:a7:0a:bb:0d:4f:9c:64:f6:
                    c3:92:a9:fa:ce:f1:9c:be:f5:15:86:5a:4c:53:9a:
                    8c:aa:25:7b:c9:60:ea:bd:af:2a:59:a7:f7:87:ef:
                    6c:5a:9e:7f:4a:dc:29:72:7d:10:b4:57:09:ea:30:
                    32:49:23:b3:bc:1d:3e:23:6b:bf:1d:03:1f:36:7f:
                    9d:1c:5f:27:4b:b2:bb:55:8f:af:00:80:a6:2f:5f:
                    1e:a4:db:79:47:b8:36:cf:9e:bd:fe:e0:c5:ae:e4:
                    e0:68:3f:55:97:e1:1e:22:43
                Exponent: 65537 (0x10001)
        X509v3 extensions:
            X509v3 Basic Constraints: 
                CA:FALSE
            X509v3 Subject Key Identifier: 
                F0:7F:E7:0B:CE:78:E6:5E:A1:44:30:C3:46:ED:EA:03:7F:09:F9:AA
            X509v3 Authority Key Identifier: 
                keyid:A4:C0:1D:8F:21:00:D6:A4:1C:88:23:D9:85:6A:A9:E3:8A:22:91:CA
                DirName:/CN=vivisystems CA/C=TW/ST=Taiwan/L=Taipei/O=Vivisystems, Taiwan/emailAddress=support@vivisystems.com.tw
                serial:99:4C:0F:20:54:05:38:94

            Netscape CA Revocation Url: 
                https://www.vivisystems.com.tw/ca-crl.pem
    Signature Algorithm: sha1WithRSAEncryption
        a6:f8:c8:d3:2d:75:84:f1:98:dd:c5:b7:58:16:84:52:a3:f3:
        25:e5:95:4e:11:13:27:11:56:2d:fe:34:84:4c:a5:8f:dc:63:
        4a:3e:c0:aa:36:3c:67:15:62:5b:7f:8d:83:f1:e4:69:3f:44:
        8e:d0:e4:01:89:0f:f2:8a:8b:f0:4f:0a:8c:1a:10:37:39:61:
        3c:90:fd:54:79:6f:67:53:ca:78:3c:ce:b2:c5:89:a7:7d:e8:
        88:8a:ab:db:ef:18:99:21:87:db:23:11:5f:5b:93:fe:80:cd:
        68:9f:58:17:d5:63:e5:53:cf:e6:5d:ae:47:45:4d:51:f5:8d:
        c7:c5:7c:60:ce:aa:58:89:80:cc:ce:da:39:d9:16:15:94:e1:
        1b:f3:d6:f9:c6:10:9a:c4:4a:c6:a8:a3:95:d2:84:cc:cf:68:
        0b:a2:fb:04:c4:c8:1f:59:a8:8b:50:5a:cd:36:08:11:ce:60:
        97:77:7c:7f:0e:34:1e:00:cf:6d:04:81:fb:8c:6a:7a:60:4d:
        0f:01:cd:74:45:e3:8a:49:3a:af:44:08:75:2c:d8:7d:53:0a:
        c7:79:47:2d:46:66:eb:25:7f:4d:38:e9:8a:ed:c2:8f:ba:36:
        42:28:b3:c2:36:a8:bd:45:ae:68:85:15:d5:dd:05:d9:c3:00:
        1c:e4:76:08
-----BEGIN CERTIFICATE-----
MIIEHzCCAwegAwIBAgIBAjANBgkqhkiG9w0BAQUFADCBkTEXMBUGA1UEAxMOdml2
aXN5c3RlbXMgQ0ExCzAJBgNVBAYTAlRXMQ8wDQYDVQQIEwZUYWl3YW4xDzANBgNV
BAcTBlRhaXBlaTEcMBoGA1UEChMTVml2aXN5c3RlbXMsIFRhaXdhbjEpMCcGCSqG
SIb3DQEJARYac3VwcG9ydEB2aXZpc3lzdGVtcy5jb20udHcwHhcNMTAwODIzMDUy
NjM0WhcNMzAwODE4MDUyNjM0WjBjMQswCQYDVQQGEwJUVzEPMA0GA1UECBMGVGFp
d2FuMRwwGgYDVQQKExNWaXZpc3lzdGVtcywgVGFpd2FuMSUwIwYDVQQDExxyb3Vu
ZHJvY2sudml2aXN5c3RlbXMuY29tLnR3MIGfMA0GCSqGSIb3DQEBAQUAA4GNADCB
iQKBgQCTcomv7cX9tt9Si+urn3FMF/IYP9qnCrsNT5xk9sOSqfrO8Zy+9RWGWkxT
moyqJXvJYOq9rypZp/eH72xann9K3ClyfRC0VwnqMDJJI7O8HT4ja78dAx82f50c
XydLsrtVj68AgKYvXx6k23lHuDbPnr3+4MWu5OBoP1WX4R4iQwIDAQABo4IBMTCC
AS0wCQYDVR0TBAIwADAdBgNVHQ4EFgQU8H/nC8545l6hRDDDRu3qA38J+aowgcYG
A1UdIwSBvjCBu4AUpMAdjyEA1qQciCPZhWqp44oikcqhgZekgZQwgZExFzAVBgNV
BAMTDnZpdmlzeXN0ZW1zIENBMQswCQYDVQQGEwJUVzEPMA0GA1UECBMGVGFpd2Fu
MQ8wDQYDVQQHEwZUYWlwZWkxHDAaBgNVBAoTE1ZpdmlzeXN0ZW1zLCBUYWl3YW4x
KTAnBgkqhkiG9w0BCQEWGnN1cHBvcnRAdml2aXN5c3RlbXMuY29tLnR3ggkAmUwP
IFQFOJQwOAYJYIZIAYb4QgEEBCsWKWh0dHBzOi8vd3d3LnZpdmlzeXN0ZW1zLmNv
bS50dy9jYS1jcmwucGVtMA0GCSqGSIb3DQEBBQUAA4IBAQCm+MjTLXWE8ZjdxbdY
FoRSo/Ml5ZVOERMnEVYt/jSETKWP3GNKPsCqNjxnFWJbf42D8eRpP0SO0OQBiQ/y
iovwTwqMGhA3OWE8kP1UeW9nU8p4PM6yxYmnfeiIiqvb7xiZIYfbIxFfW5P+gM1o
n1gX1WPlU8/mXa5HRU1R9Y3HxXxgzqpYiYDMzto52RYVlOEb89b5xhCaxErGqKOV
0oTMz2gLovsExMgfWaiLUFrNNggRzmCXd3x/DjQeAM9tBIH7jGp6YE0PAc10ReOK
STqvRAh1LNh9UwrHeUctRmbrJX9NOOmK7cKPujZCKLPCNqi9Ra5ohRXV3QXZwwAc
5HYI
-----END CERTIFICATE-----
